; Function Attrs: nounwind uwtable
define i32 @H5T_get_nmembers(ptr noundef readonly captures(none) %0) local_unnamed_addr #0 {
  %2 = getelementptr inbounds nuw i8, ptr %0, i64 40
  %3 = load ptr, ptr %2, align 8
  %4 = getelementptr inbounds nuw i8, ptr %3, i64 12
  %5 = load i32, ptr %4, align 4
  switch i32 %5, label %12 [
    i32 6, label %6
    i32 8, label %9
  ]

6:                                                ; preds = %1
  %7 = getelementptr inbounds nuw i8, ptr %3, i64 52
  %8 = load i32, ptr %7, align 4
  br label %16

9:                                                ; preds = %1
  %10 = getelementptr inbounds nuw i8, ptr %3, i64 52
  %11 = load i32, ptr %10, align 4
  br label %16

12:                                               ; preds = %1
  %13 = load i64, ptr @H5E_ARGS_g, align 8
  %14 = load i64, ptr @H5E_BADTYPE_g, align 8
  %15 = tail call i32 (ptr, ptr, i32, i64, i64, ptr, ...) @H5E_printf_stack(ptr noundef nonnull @.str, ptr noundef nonnull @__func__.H5T_get_nmembers, i32 noundef 88, i64 noundef %13, i64 noundef %14, ptr noundef nonnull @.str.5) #5
  br label %16

16:                                               ; preds = %6, %9, %12
  %.0 = phi i32 [ %8, %6 ], [ %11, %9 ], [ -1, %12 ]
  ret i32 %.0
}